; Function Attrs: nounwind uwtable
define zeroext range(i8 0, 2) i8 @l_Lean_Elab_isValidAutoBoundImplicitName(ptr noundef %0, i8 noundef zeroext %1) local_unnamed_addr #0 {
  %3 = ptrtoint ptr %0 to i64
  %4 = and i64 %3, 1
  %.not.i43 = icmp eq i64 %4, 0
  br i1 %.not.i43, label %lean_obj_tag.exit.thread, label %lean_obj_tag.exit

lean_obj_tag.exit:                                ; preds = %2
  %5 = and i64 %3, 8589934590
  %6 = icmp eq i64 %5, 2
  br i1 %6, label %9, label %lean_dec.exit28

lean_obj_tag.exit.thread:                         ; preds = %2
  %7 = getelementptr i8, ptr %0, i64 4
  %.val.i = load i32, ptr %7, align 4
  %.mask = and i32 %.val.i, -16777216
  %8 = icmp eq i32 %.mask, 16777216
  br i1 %8, label %9, label %.thread57

9:                                                ; preds = %lean_obj_tag.exit.thread, %lean_obj_tag.exit
  %10 = getelementptr inbounds nuw i8, ptr %0, i64 8
  %11 = load ptr, ptr %10, align 8, !tbaa !4
  %12 = ptrtoint ptr %11 to i64
  %13 = and i64 %12, 1
  %.not = icmp eq i64 %13, 0
  br i1 %.not, label %14, label %lean_obj_tag.exit50

14:                                               ; preds = %9
  %.val.i45 = load i32, ptr %11, align 4, !tbaa !10
  %15 = icmp sgt i32 %.val.i45, 0
  br i1 %15, label %16, label %18, !prof !14

16:                                               ; preds = %14
  %17 = add nuw i32 %.val.i45, 1
  store i32 %17, ptr %11, align 4, !tbaa !10
  br label %lean_obj_tag.exit50.thread

18:                                               ; preds = %14
  %.not.i46 = icmp eq i32 %.val.i45, 0
  br i1 %.not.i46, label %lean_obj_tag.exit50.thread, label %19

19:                                               ; preds = %18
  tail call void @lean_inc_ref_cold(ptr noundef nonnull %11) #3
  br label %lean_obj_tag.exit50.thread

lean_obj_tag.exit50:                              ; preds = %9
  %20 = and i64 %12, 8589934590
  %21 = icmp eq i64 %20, 0
  br i1 %21, label %24, label %lean_dec.exit26

lean_obj_tag.exit50.thread:                       ; preds = %16, %18, %19
  %22 = getelementptr i8, ptr %11, i64 4
  %.val.i49 = load i32, ptr %22, align 4
  %23 = icmp ult i32 %.val.i49, 16777216
  br i1 %23, label %24, label %.thread

24:                                               ; preds = %lean_obj_tag.exit50.thread, %lean_obj_tag.exit50
  %25 = getelementptr inbounds nuw i8, ptr %0, i64 16
  %26 = load ptr, ptr %25, align 8, !tbaa !4
  %27 = ptrtoint ptr %26 to i64
  %28 = and i64 %27, 1
  %.not59 = icmp eq i64 %28, 0
  br i1 %.not59, label %29, label %lean_inc.exit

29:                                               ; preds = %24
  %.val.i51 = load i32, ptr %26, align 4, !tbaa !10
  %30 = icmp sgt i32 %.val.i51, 0
  br i1 %30, label %31, label %33, !prof !14

31:                                               ; preds = %29
  %32 = add nuw i32 %.val.i51, 1
  store i32 %32, ptr %26, align 4, !tbaa !10
  br label %lean_inc.exit

33:                                               ; preds = %29
  %.not.i52 = icmp eq i32 %.val.i51, 0
  br i1 %.not.i52, label %lean_inc.exit, label %34

34:                                               ; preds = %33
  tail call void @lean_inc_ref_cold(ptr noundef nonnull %26) #3
  br label %lean_inc.exit

lean_inc.exit:                                    ; preds = %34, %33, %31, %24
  br i1 %.not.i43, label %35, label %lean_dec.exit29

35:                                               ; preds = %lean_inc.exit
  %36 = load i32, ptr %0, align 4, !tbaa !10
  %37 = icmp sgt i32 %36, 1
  br i1 %37, label %38, label %40, !prof !14

38:                                               ; preds = %35
  %39 = add nsw i32 %36, -1
  store i32 %39, ptr %0, align 4, !tbaa !10
  br label %lean_dec.exit29

40:                                               ; preds = %35
  %.not.i = icmp eq i32 %36, 0
  br i1 %.not.i, label %lean_dec.exit29, label %41

41:                                               ; preds = %40
  tail call void @lean_dec_ref_cold(ptr noundef nonnull %0) #3
  br label %lean_dec.exit29

lean_dec.exit29:                                  ; preds = %41, %40, %38, %lean_inc.exit
  %42 = getelementptr i8, ptr %26, i64 24
  %.val = load i64, ptr %42, align 8, !tbaa !8
  %.mask61 = and i64 %.val, 9223372036854775807
  %.not62 = icmp eq i64 %.mask61, 0
  br i1 %.not62, label %43, label %51

43:                                               ; preds = %lean_dec.exit29
  br i1 %.not59, label %44, label %lean_dec.exit28

44:                                               ; preds = %43
  %45 = load i32, ptr %26, align 4, !tbaa !10
  %46 = icmp sgt i32 %45, 1
  br i1 %46, label %47, label %49, !prof !14

47:                                               ; preds = %44
  %48 = add nsw i32 %45, -1
  store i32 %48, ptr %26, align 4, !tbaa !10
  br label %lean_dec.exit28

49:                                               ; preds = %44
  %.not.i33 = icmp eq i32 %45, 0
  br i1 %.not.i33, label %lean_dec.exit28, label %50

50:                                               ; preds = %49
  tail call void @lean_dec_ref_cold(ptr noundef nonnull %26) #3
  br label %lean_dec.exit28

51:                                               ; preds = %lean_dec.exit29
  %52 = icmp eq i8 %1, 0
  br i1 %52, label %53, label %55

53:                                               ; preds = %51
  %54 = tail call zeroext i8 @l___private_Lean_Elab_AutoBound_0__Lean_Elab_isValidAutoBoundSuffix(ptr noundef nonnull %26)
  br label %lean_dec.exit28

55:                                               ; preds = %51
  br i1 %.not59, label %56, label %lean_dec.exit28

56:                                               ; preds = %55
  %57 = load i32, ptr %26, align 4, !tbaa !10
  %58 = icmp sgt i32 %57, 1
  br i1 %58, label %59, label %61, !prof !14

59:                                               ; preds = %56
  %60 = add nsw i32 %57, -1
  store i32 %60, ptr %26, align 4, !tbaa !10
  br label %lean_dec.exit28

61:                                               ; preds = %56
  %.not.i35 = icmp eq i32 %57, 0
  br i1 %.not.i35, label %lean_dec.exit28, label %62

62:                                               ; preds = %61
  tail call void @lean_dec_ref_cold(ptr noundef nonnull %26) #3
  br label %lean_dec.exit28

.thread:                                          ; preds = %lean_obj_tag.exit50.thread
  %63 = load i32, ptr %11, align 4, !tbaa !10
  %64 = icmp sgt i32 %63, 1
  br i1 %64, label %65, label %67, !prof !14

65:                                               ; preds = %.thread
  %66 = add nsw i32 %63, -1
  store i32 %66, ptr %11, align 4, !tbaa !10
  br label %lean_dec.exit26

67:                                               ; preds = %.thread
  %.not.i37 = icmp eq i32 %63, 0
  br i1 %.not.i37, label %lean_dec.exit26, label %68

68:                                               ; preds = %67
  tail call void @lean_dec_ref_cold(ptr noundef nonnull %11) #3
  br label %lean_dec.exit26

lean_dec.exit26:                                  ; preds = %lean_obj_tag.exit50, %68, %67, %65
  br i1 %.not.i43, label %69, label %lean_dec.exit28

69:                                               ; preds = %lean_dec.exit26
  %70 = load i32, ptr %0, align 4, !tbaa !10
  %71 = icmp sgt i32 %70, 1
  br i1 %71, label %72, label %74, !prof !14

72:                                               ; preds = %69
  %73 = add nsw i32 %70, -1
  store i32 %73, ptr %0, align 4, !tbaa !10
  br label %lean_dec.exit28

74:                                               ; preds = %69
  %.not.i39 = icmp eq i32 %70, 0
  br i1 %.not.i39, label %lean_dec.exit28, label %75

75:                                               ; preds = %74
  tail call void @lean_dec_ref_cold(ptr noundef nonnull %0) #3
  br label %lean_dec.exit28

.thread57:                                        ; preds = %lean_obj_tag.exit.thread
  %76 = load i32, ptr %0, align 4, !tbaa !10
  %77 = icmp sgt i32 %76, 1
  br i1 %77, label %78, label %80, !prof !14

78:                                               ; preds = %.thread57
  %79 = add nsw i32 %76, -1
  store i32 %79, ptr %0, align 4, !tbaa !10
  br label %lean_dec.exit28

80:                                               ; preds = %.thread57
  %.not.i41 = icmp eq i32 %76, 0
  br i1 %.not.i41, label %lean_dec.exit28, label %81

81:                                               ; preds = %80
  tail call void @lean_dec_ref_cold(ptr noundef nonnull %0) #3
  br label %lean_dec.exit28

lean_dec.exit28:                                  ; preds = %lean_obj_tag.exit, %78, %80, %81, %lean_dec.exit26, %72, %74, %75, %55, %59, %61, %62, %43, %47, %49, %50, %53
  %.2 = phi i8 [ %54, %53 ], [ 0, %50 ], [ 0, %49 ], [ 0, %47 ], [ 0, %43 ], [ 1, %62 ], [ 1, %61 ], [ 1, %59 ], [ 1, %55 ], [ 0, %75 ], [ 0, %74 ], [ 0, %72 ], [ 0, %lean_dec.exit26 ], [ 0, %81 ], [ 0, %80 ], [ 0, %78 ], [ 0, %lean_obj_tag.exit ]
  ret i8 %.2
}